; Function Attrs: mustprogress uwtable
define noundef ptr @_ZNK8LightGBM7Dataset14GetColWiseDataEiiPhPbPSt6vectorIPNS_11BinIteratorESaIS5_EEi(ptr noundef nonnull readonly align 8 captures(none) dereferenceable(864) %0, i32 noundef %1, i32 noundef %2, ptr noundef %3, ptr noundef %4, ptr noundef %5, i32 noundef %6) local_unnamed_addr #3 align 2 {
  %8 = getelementptr inbounds nuw i8, ptr %0, i64 32
  %9 = sext i32 %1 to i64
  %10 = load ptr, ptr %8, align 8, !tbaa !105
  %11 = getelementptr inbounds nuw %"class.std::unique_ptr.74", ptr %10, i64 %9
  %12 = load ptr, ptr %11, align 8, !tbaa !106
  %13 = icmp sgt i32 %2, -1
  %14 = getelementptr inbounds nuw i8, ptr %12, i64 88
  %15 = load i8, ptr %14, align 8, !tbaa !108, !range !95, !noundef !96
  %16 = trunc nuw i8 %15 to i1
  br i1 %13, label %17, label %24

17:                                               ; preds = %7
  br i1 %16, label %19, label %18

18:                                               ; preds = %17
  tail call void (ptr, ...) @_ZN8LightGBM3Log5FatalEPKcz(ptr noundef nonnull @.str.95, ptr noundef nonnull @.str.46, i32 noundef 547)
  br label %19

19:                                               ; preds = %18, %17
  %20 = getelementptr inbounds nuw i8, ptr %12, i64 64
  %21 = zext nneg i32 %2 to i64
  %22 = load ptr, ptr %20, align 8, !tbaa !271
  %23 = getelementptr inbounds nuw %"class.std::unique_ptr.87", ptr %22, i64 %21
  br label %_ZNK8LightGBM12FeatureGroup14GetColWiseDataEiPhPbPSt6vectorIPNS_11BinIteratorESaIS5_EEi.exit

24:                                               ; preds = %7
  br i1 %16, label %25, label %26

25:                                               ; preds = %24
  tail call void (ptr, ...) @_ZN8LightGBM3Log5FatalEPKcz(ptr noundef nonnull @.str.98, ptr noundef nonnull @.str.46, i32 noundef 550)
  br label %26

26:                                               ; preds = %25, %24
  %27 = getelementptr inbounds nuw i8, ptr %12, i64 56
  br label %_ZNK8LightGBM12FeatureGroup14GetColWiseDataEiPhPbPSt6vectorIPNS_11BinIteratorESaIS5_EEi.exit

_ZNK8LightGBM12FeatureGroup14GetColWiseDataEiPhPbPSt6vectorIPNS_11BinIteratorESaIS5_EEi.exit: ; preds = %19, %26
  %.sink15.in.i = phi ptr [ %27, %26 ], [ %23, %19 ]
  %.sink15.i = load ptr, ptr %.sink15.in.i, align 8, !tbaa !167
  %28 = load ptr, ptr %.sink15.i, align 8, !tbaa !99
  %29 = getelementptr inbounds nuw i8, ptr %28, i64 272
  %30 = load ptr, ptr %29, align 8
  %31 = tail call noundef ptr %30(ptr noundef nonnull align 8 dereferenceable(8) %.sink15.i, ptr noundef %3, ptr noundef %4, ptr noundef %5, i32 noundef %6)
  ret ptr %31
}